Certificate:
    Data:
        Version: 3 (0x2)
        Serial Number: 1 (0x1)
    Signature Algorithm: sha1WithRSAEncryption
        Issuer: CN=pft, C=FR, ST=PACA, L=Aix, O=Eurecom, OU=CM
        Validity
            Not Before: May 20 14:51:47 2015 GMT
            Not After : May 19 14:51:47 2016 GMT
        Subject: C=FR, ST=PACA, O=Eurecom, OU=CM, CN=ubuntu.pft
        Subject Public Key Info:
            Public Key Algorithm: rsaEncryption
                Public-Key: (1024 bit)
                Modulus:
                    00:d6:81:a3:ec:69:a8:71:52:c0:d5:d7:19:fb:e0:
                    99:7d:89:f2:f1:74:5f:c8:0c:10:19:df:97:63:5c:
                    bf:02:26:28:f4:e6:0c:63:2c:8e:76:5a:ae:4a:d0:
                    f8:32:c0:1f:87:1c:22:ec:30:9c:e4:dd:c3:25:0a:
                    1d:74:5d:f9:39:a0:76:24:e6:ab:c7:92:1c:6f:12:
                    2b:1b:de:ee:63:d2:b3:20:69:9a:93:75:d5:e3:88:
                    6e:ff:22:2f:66:09:b6:54:38:bf:e3:63:bb:c7:52:
                    81:ec:99:8d:f8:0c:66:bc:51:91:10:d9:47:22:ca:
                    e2:b2:57:a8:27:de:f0:5c:63
                Exponent: 65537 (0x10001)
        X509v3 extensions:
            X509v3 Basic Constraints: 
                CA:FALSE
            Netscape Comment: 
                OpenSSL Generated Certificate
            X509v3 Subject Key Identifier: 
                64:A5:90:E5:09:E6:EC:73:02:2B:6B:15:03:B4:35:EA:14:22:E0:94
            X509v3 Authority Key Identifier: 
                keyid:B3:14:E8:07:1E:98:DA:01:97:DD:1B:3F:B8:CF:BB:56:27:4C:41:3F

    Signature Algorithm: sha1WithRSAEncryption
         d3:42:5c:1f:af:31:1c:15:1c:93:7d:10:6e:4e:0a:a5:f8:4c:
         78:a1:80:23:0d:c5:2e:d4:07:ff:c6:59:be:4a:f6:8a:61:9d:
         71:a5:54:da:e1:ef:6d:16:ef:48:5c:80:12:89:25:4c:ea:4e:
         21:38:63:da:3a:bd:ac:b6:55:f8:34:40:63:af:59:82:30:d8:
         5e:af:de:4e:6d:1f:f8:70:4c:7d:a4:f7:c2:07:05:1a:67:f1:
         9a:f8:fa:d3:ad:33:f3:99:3f:2e:89:a7:e2:7f:92:cf:9c:f8:
         e7:4c:4c:54:0f:4b:48:c2:51:20:6f:f7:0e:13:0a:58:26:ee:
         18:de
-----BEGIN CERTIFICATE-----
MIICmDCCAgGgAwIBAgIBATANBgkqhkiG9w0BAQUFADBXMQwwCgYDVQQDDANwZnQx
CzAJBgNVBAYTAkZSMQ0wCwYDVQQIDARQQUNBMQwwCgYDVQQHDANBaXgxEDAOBgNV
BAoMB0V1cmVjb20xCzAJBgNVBAsMAkNNMB4XDTE1MDUyMDE0NTE0N1oXDTE2MDUx
OTE0NTE0N1owUDELMAkGA1UEBhMCRlIxDTALBgNVBAgMBFBBQ0ExEDAOBgNVBAoM
B0V1cmVjb20xCzAJBgNVBAsMAkNNMRMwEQYDVQQDDAp1YnVudHUucGZ0MIGfMA0G
CSqGSIb3DQEBAQUAA4GNADCBiQKBgQDWgaPsaahxUsDV1xn74Jl9ifLxdF/IDBAZ
35djXL8CJij05gxjLI52Wq5K0PgywB+HHCLsMJzk3cMlCh10Xfk5oHYk5qvHkhxv
Eisb3u5j0rMgaZqTddXjiG7/Ii9mCbZUOL/jY7vHUoHsmY34DGa8UZEQ2UciyuKy
V6gn3vBcYwIDAQABo3sweTAJBgNVHRMEAjAAMCwGCWCGSAGG+EIBDQQfFh1PcGVu
U1NMIEdlbmVyYXRlZCBDZXJ0aWZpY2F0ZTAdBgNVHQ4EFgQUZKWQ5Qnm7HMCK2sV
A7Q16hQi4JQwHwYDVR0jBBgwFoAUsxToBx6Y2gGX3Rs/uM+7VidMQT8wDQYJKoZI
hvcNAQEFBQADgYEA00JcH68xHBUck30Qbk4KpfhMeKGAIw3FLtQH/8ZZvkr2imGd
caVU2uHvbRbvSFyAEoklTOpOIThj2jq9rLZV+DRAY69ZgjDYXq/eTm0f+HBMfaT3
wgcFGmfxmvj6060z85k/Lomn4n+Sz5z450xMVA9LSMJRIG/3DhMKWCbuGN4=
-----END CERTIFICATE-----
